; Function Attrs: mustprogress uwtable
define noundef i32 @_ZN12ByteViewText12offsetPixelsEv(ptr noundef nonnull align 8 dereferenceable(328) %0) local_unnamed_addr #0 align 2 personality ptr @__gxx_personality_v0 {
  %2 = alloca %class.QFontMetrics, align 8
  %3 = alloca %class.QString, align 8
  %4 = getelementptr inbounds i8, ptr %0, i64 192
  %5 = load i8, ptr %4, align 8
  %6 = and i8 %5, 1
  %.not = icmp eq i8 %6, 0
  br i1 %.not, label %_ZN7QStringD2Ev.exit, label %7

7:                                                ; preds = %1
  %8 = getelementptr inbounds i8, ptr %0, i64 72
  %9 = load i64, ptr %8, align 8
  %10 = icmp sgt i64 %9, 65535
  %11 = select i1 %10, i64 10, i64 6
  call void @_ZN7QStringC1Ex5QChar(ptr noundef nonnull align 8 dereferenceable(24) %3, i64 noundef %11, i16 48)
  call void @llvm.lifetime.start.p0(i64 8, ptr nonnull %2)
  %12 = invoke noundef ptr @_ZNK19QAbstractScrollArea8viewportEv(ptr noundef nonnull align 8 dereferenceable(40) %0)
          to label %.noexc unwind label %24

.noexc:                                           ; preds = %7
  %13 = getelementptr inbounds i8, ptr %12, i64 32
  %14 = load ptr, ptr %13, align 8, !noalias !28
  %15 = getelementptr inbounds i8, ptr %14, i64 56
  invoke void @_ZN12QFontMetricsC1ERK5QFont(ptr noundef nonnull align 8 dereferenceable(8) %2, ptr noundef nonnull align 8 dereferenceable(12) %15)
          to label %.noexc3 unwind label %24

.noexc3:                                          ; preds = %.noexc
  %16 = invoke noundef i32 @_ZNK12QFontMetrics17horizontalAdvanceERK7QStringi(ptr noundef nonnull align 8 dereferenceable(8) %2, ptr noundef nonnull align 8 dereferenceable(24) %3, i32 noundef -1)
          to label %19 unwind label %17

17:                                               ; preds = %.noexc3
  %18 = landingpad { ptr, i32 }
          cleanup
  call void @_ZN12QFontMetricsD1Ev(ptr noundef nonnull align 8 dereferenceable(8) %2) #22
  br label %.body

19:                                               ; preds = %.noexc3
  call void @_ZN12QFontMetricsD1Ev(ptr noundef nonnull align 8 dereferenceable(8) %2) #22
  call void @llvm.lifetime.end.p0(i64 8, ptr nonnull %2)
  %20 = load ptr, ptr %3, align 8
  %.not.i.i.i = icmp eq ptr %20, null
  br i1 %.not.i.i.i, label %_ZN7QStringD2Ev.exit, label %_ZN17QArrayDataPointerIDsE5derefEv.exit.i.i

_ZN17QArrayDataPointerIDsE5derefEv.exit.i.i:      ; preds = %19
  %21 = atomicrmw sub ptr %20, i32 1 seq_cst, align 4
  %.not.i.i = icmp eq i32 %21, 1
  br i1 %.not.i.i, label %22, label %_ZN7QStringD2Ev.exit

22:                                               ; preds = %_ZN17QArrayDataPointerIDsE5derefEv.exit.i.i
  %23 = load ptr, ptr %3, align 8
  call void @_ZN10QArrayData10deallocateEPS_xx(ptr noundef %23, i64 noundef 2, i64 noundef 8) #22
  br label %_ZN7QStringD2Ev.exit

24:                                               ; preds = %.noexc, %7
  %25 = landingpad { ptr, i32 }
          cleanup
  br label %.body

.body:                                            ; preds = %17, %24
  %eh.lpad-body = phi { ptr, i32 } [ %25, %24 ], [ %18, %17 ]
  %26 = load ptr, ptr %3, align 8
  %.not.i.i.i4 = icmp eq ptr %26, null
  br i1 %.not.i.i.i4, label %_ZN7QStringD2Ev.exit7, label %_ZN17QArrayDataPointerIDsE5derefEv.exit.i.i5

_ZN17QArrayDataPointerIDsE5derefEv.exit.i.i5:     ; preds = %.body
  %27 = atomicrmw sub ptr %26, i32 1 seq_cst, align 4
  %.not.i.i6 = icmp eq i32 %27, 1
  br i1 %.not.i.i6, label %28, label %_ZN7QStringD2Ev.exit7

28:                                               ; preds = %_ZN17QArrayDataPointerIDsE5derefEv.exit.i.i5
  %29 = load ptr, ptr %3, align 8
  call void @_ZN10QArrayData10deallocateEPS_xx(ptr noundef %29, i64 noundef 2, i64 noundef 8) #22
  br label %_ZN7QStringD2Ev.exit7

_ZN7QStringD2Ev.exit7:                            ; preds = %.body, %_ZN17QArrayDataPointerIDsE5derefEv.exit.i.i5, %28
  resume { ptr, i32 } %eh.lpad-body

_ZN7QStringD2Ev.exit:                             ; preds = %22, %_ZN17QArrayDataPointerIDsE5derefEv.exit.i.i, %19, %1
  %.0 = phi i32 [ 0, %1 ], [ %16, %19 ], [ %16, %_ZN17QArrayDataPointerIDsE5derefEv.exit.i.i ], [ %16, %22 ]
  ret i32 %.0
}